; ModuleID = '22/71.c'
source_filename = "22/71.c"
target datalayout = "e-m:e-p270:32:32-p271:32:32-p272:64:64-i64:64-f80:128-n8:16:32:64-S128"
target triple = "x86_64-pc-linux-gnu"

@.str = private unnamed_addr constant [3 x i8] c"%s\00", align 1
@.str.1 = private unnamed_addr constant [3 x i8] c"%d\00", align 1
@.str.2 = private unnamed_addr constant [3 x i8] c"No\00", align 1

; Function Attrs: noinline nounwind uwtable
define dso_local void @main() #0 {
  %1 = alloca i32, align 4
  %2 = alloca i32, align 4
  %3 = alloca i32, align 4
  %4 = alloca i32, align 4
  %5 = alloca i32, align 4
  %6 = alloca [300 x i32], align 16
  %7 = alloca [300 x i32], align 16
  %8 = alloca i32, align 4
  %9 = alloca [20000 x i8], align 16
  store i32 0, i32* %2, align 4
  %10 = bitcast [300 x i32]* %6 to i8*
  call void @llvm.memset.p0i8.i64(i8* align 16 %10, i8 0, i64 1200, i1 false)
  store i32 0, i32* %8, align 4
  %11 = getelementptr inbounds [20000 x i8], [20000 x i8]* %9, i64 0, i64 0
  %12 = call i32 (i8*, ...) @__isoc99_scanf(i8* getelementptr inbounds ([3 x i8], [3 x i8]* @.str, i64 0, i64 0), i8* %11)
  %13 = getelementptr inbounds [20000 x i8], [20000 x i8]* %9, i64 0, i64 0
  %14 = call i64 @strlen(i8* %13) #4
  %15 = trunc i64 %14 to i32
  store i32 %15, i32* %5, align 4
  store i32 0, i32* %1, align 4
  br label %16

16:                                               ; preds = %47, %0
  %17 = load i32, i32* %1, align 4
  %18 = load i32, i32* %5, align 4
  %19 = icmp slt i32 %17, %18
  br i1 %19, label %20, label %50

20:                                               ; preds = %16
  %21 = load i32, i32* %1, align 4
  %22 = sext i32 %21 to i64
  %23 = getelementptr inbounds [20000 x i8], [20000 x i8]* %9, i64 0, i64 %22
  %24 = load i8, i8* %23, align 1
  %25 = sext i8 %24 to i32
  %26 = icmp ne i32 %25, 44
  br i1 %26, label %27, label %43

27:                                               ; preds = %20
  %28 = load i32, i32* %2, align 4
  %29 = sext i32 %28 to i64
  %30 = getelementptr inbounds [300 x i32], [300 x i32]* %6, i64 0, i64 %29
  %31 = load i32, i32* %30, align 4
  %32 = mul nsw i32 %31, 10
  %33 = load i32, i32* %1, align 4
  %34 = sext i32 %33 to i64
  %35 = getelementptr inbounds [20000 x i8], [20000 x i8]* %9, i64 0, i64 %34
  %36 = load i8, i8* %35, align 1
  %37 = sext i8 %36 to i32
  %38 = add nsw i32 %32, %37
  %39 = sub nsw i32 %38, 48
  %40 = load i32, i32* %2, align 4
  %41 = sext i32 %40 to i64
  %42 = getelementptr inbounds [300 x i32], [300 x i32]* %6, i64 0, i64 %41
  store i32 %39, i32* %42, align 4
  br label %46

43:                                               ; preds = %20
  %44 = load i32, i32* %2, align 4
  %45 = add nsw i32 %44, 1
  store i32 %45, i32* %2, align 4
  br label %46

46:                                               ; preds = %43, %27
  br label %47

47:                                               ; preds = %46
  %48 = load i32, i32* %1, align 4
  %49 = add nsw i32 %48, 1
  store i32 %49, i32* %1, align 4
  br label %16

50:                                               ; preds = %16
  store i32 0, i32* %1, align 4
  br label %51

51:                                               ; preds = %96, %50
  %52 = load i32, i32* %1, align 4
  %53 = load i32, i32* %2, align 4
  %54 = icmp sle i32 %52, %53
  br i1 %54, label %55, label %99

55:                                               ; preds = %51
  store i32 0, i32* %3, align 4
  br label %56

56:                                               ; preds = %92, %55
  %57 = load i32, i32* %3, align 4
  %58 = load i32, i32* %2, align 4
  %59 = load i32, i32* %1, align 4
  %60 = sub nsw i32 %58, %59
  %61 = icmp slt i32 %57, %60
  br i1 %61, label %62, label %95

62:                                               ; preds = %56
  %63 = load i32, i32* %3, align 4
  %64 = sext i32 %63 to i64
  %65 = getelementptr inbounds [300 x i32], [300 x i32]* %6, i64 0, i64 %64
  %66 = load i32, i32* %65, align 4
  %67 = load i32, i32* %3, align 4
  %68 = add nsw i32 %67, 1
  %69 = sext i32 %68 to i64
  %70 = getelementptr inbounds [300 x i32], [300 x i32]* %6, i64 0, i64 %69
  %71 = load i32, i32* %70, align 4
  %72 = icmp sgt i32 %66, %71
  br i1 %72, label %73, label %91

73:                                               ; preds = %62
  %74 = load i32, i32* %3, align 4
  %75 = sext i32 %74 to i64
  %76 = getelementptr inbounds [300 x i32], [300 x i32]* %6, i64 0, i64 %75
  %77 = load i32, i32* %76, align 4
  store i32 %77, i32* %4, align 4
  %78 = load i32, i32* %3, align 4
  %79 = add nsw i32 %78, 1
  %80 = sext i32 %79 to i64
  %81 = getelementptr inbounds [300 x i32], [300 x i32]* %6, i64 0, i64 %80
  %82 = load i32, i32* %81, align 4
  %83 = load i32, i32* %3, align 4
  %84 = sext i32 %83 to i64
  %85 = getelementptr inbounds [300 x i32], [300 x i32]* %6, i64 0, i64 %84
  store i32 %82, i32* %85, align 4
  %86 = load i32, i32* %4, align 4
  %87 = load i32, i32* %3, align 4
  %88 = add nsw i32 %87, 1
  %89 = sext i32 %88 to i64
  %90 = getelementptr inbounds [300 x i32], [300 x i32]* %6, i64 0, i64 %89
  store i32 %86, i32* %90, align 4
  br label %91

91:                                               ; preds = %73, %62
  br label %92

92:                                               ; preds = %91
  %93 = load i32, i32* %3, align 4
  %94 = add nsw i32 %93, 1
  store i32 %94, i32* %3, align 4
  br label %56

95:                                               ; preds = %56
  br label %96

96:                                               ; preds = %95
  %97 = load i32, i32* %1, align 4
  %98 = add nsw i32 %97, 1
  store i32 %98, i32* %1, align 4
  br label %51

99:                                               ; preds = %51
  %100 = load i32, i32* %2, align 4
  %101 = sub nsw i32 %100, 1
  store i32 %101, i32* %1, align 4
  br label %102

102:                                              ; preds = %131, %99
  %103 = load i32, i32* %1, align 4
  %104 = icmp sge i32 %103, 0
  br i1 %104, label %105, label %134

105:                                              ; preds = %102
  %106 = load i32, i32* %1, align 4
  %107 = add nsw i32 %106, 1
  %108 = sext i32 %107 to i64
  %109 = getelementptr inbounds [300 x i32], [300 x i32]* %6, i64 0, i64 %108
  %110 = load i32, i32* %109, align 4
  %111 = load i32, i32* %1, align 4
  %112 = sext i32 %111 to i64
  %113 = getelementptr inbounds [300 x i32], [300 x i32]* %6, i64 0, i64 %112
  %114 = load i32, i32* %113, align 4
  %115 = sub nsw i32 %110, %114
  %116 = load i32, i32* %1, align 4
  %117 = sext i32 %116 to i64
  %118 = getelementptr inbounds [300 x i32], [300 x i32]* %7, i64 0, i64 %117
  store i32 %115, i32* %118, align 4
  %119 = load i32, i32* %1, align 4
  %120 = sext i32 %119 to i64
  %121 = getelementptr inbounds [300 x i32], [300 x i32]* %7, i64 0, i64 %120
  %122 = load i32, i32* %121, align 4
  %123 = icmp sgt i32 %122, 0
  br i1 %123, label %124, label %130

124:                                              ; preds = %105
  %125 = load i32, i32* %1, align 4
  %126 = sext i32 %125 to i64
  %127 = getelementptr inbounds [300 x i32], [300 x i32]* %6, i64 0, i64 %126
  %128 = load i32, i32* %127, align 4
  %129 = call i32 (i8*, ...) @printf(i8* getelementptr inbounds ([3 x i8], [3 x i8]* @.str.1, i64 0, i64 0), i32 %128)
  store i32 1, i32* %8, align 4
  br label %134

130:                                              ; preds = %105
  br label %131

131:                                              ; preds = %130
  %132 = load i32, i32* %1, align 4
  %133 = add nsw i32 %132, -1
  store i32 %133, i32* %1, align 4
  br label %102

134:                                              ; preds = %124, %102
  %135 = load i32, i32* %8, align 4
  %136 = icmp eq i32 %135, 0
  br i1 %136, label %137, label %139

137:                                              ; preds = %134
  %138 = call i32 (i8*, ...) @printf(i8* getelementptr inbounds ([3 x i8], [3 x i8]* @.str.2, i64 0, i64 0))
  br label %139

139:                                              ; preds = %137, %134
  ret void
}

; Function Attrs: argmemonly nounwind willreturn
declare void @llvm.memset.p0i8.i64(i8* nocapture writeonly, i8, i64, i1 immarg) #1

declare dso_local i32 @__isoc99_scanf(i8*, ...) #2

; Function Attrs: nounwind readonly
declare dso_local i64 @strlen(i8*) #3

declare dso_local i32 @printf(i8*, ...) #2


!llvm.module.flags = !{!0}
!llvm.ident = !{!1}

!0 = !{i32 1, !"wchar_size", i32 4}
!1 = !{!"clang version 10.0.0-4ubuntu1 "}
