; ModuleID = 'source-C-CXX/21/71.c'
source_filename = "source-C-CXX/21/71.c"
target datalayout = "e-m:e-p270:32:32-p271:32:32-p272:64:64-i64:64-f80:128-n8:16:32:64-S128"
target triple = "x86_64-pc-linux-gnu"

@.str = private unnamed_addr constant [3 x i8] c"%s\00", align 1
@.str.1 = private unnamed_addr constant [3 x i8] c"%d\00", align 1
@.str.2 = private unnamed_addr constant [3 x i8] c"No\00", align 1

; Function Attrs: nofree nounwind sspstrong uwtable
define dso_local void @main() local_unnamed_addr #0 {
  %1 = alloca [300 x i32], align 16
  %2 = alloca [20000 x i8], align 16
  %3 = bitcast [300 x i32]* %1 to i8*
  call void @llvm.lifetime.start.p0i8(i64 1200, i8* nonnull %3) #5
  call void @llvm.memset.p0i8.i64(i8* noundef nonnull align 16 dereferenceable(1200) %3, i8 0, i64 1200, i1 false)
  %4 = getelementptr inbounds [20000 x i8], [20000 x i8]* %2, i64 0, i64 0
  call void @llvm.lifetime.start.p0i8(i64 20000, i8* nonnull %4) #5
  %5 = call i32 (i8*, ...) @__isoc99_scanf(i8* getelementptr inbounds ([3 x i8], [3 x i8]* @.str, i64 0, i64 0), i8* nonnull %4)
  %6 = call i64 @strlen(i8* noundef nonnull %4) #6
  %7 = trunc i64 %6 to i32
  %8 = icmp sgt i32 %7, 0
  br i1 %8, label %9, label %13

9:                                                ; preds = %0
  %10 = and i64 %6, 4294967295
  br label %16

11:                                               ; preds = %32
  %12 = icmp slt i32 %33, 0
  br i1 %12, label %77, label %13

13:                                               ; preds = %0, %11
  %14 = phi i32 [ %33, %11 ], [ 0, %0 ]
  %15 = getelementptr inbounds [300 x i32], [300 x i32]* %1, i64 0, i64 0
  br label %36

16:                                               ; preds = %9, %32
  %17 = phi i64 [ 0, %9 ], [ %34, %32 ]
  %18 = phi i32 [ 0, %9 ], [ %33, %32 ]
  %19 = getelementptr inbounds [20000 x i8], [20000 x i8]* %2, i64 0, i64 %17
  %20 = load i8, i8* %19, align 1, !tbaa !5
  %21 = icmp eq i8 %20, 44
  br i1 %21, label %30, label %22

22:                                               ; preds = %16
  %23 = sext i8 %20 to i32
  %24 = sext i32 %18 to i64
  %25 = getelementptr inbounds [300 x i32], [300 x i32]* %1, i64 0, i64 %24
  %26 = load i32, i32* %25, align 4, !tbaa !8
  %27 = mul nsw i32 %26, 10
  %28 = add nsw i32 %23, -48
  %29 = add i32 %28, %27
  store i32 %29, i32* %25, align 4, !tbaa !8
  br label %32

30:                                               ; preds = %16
  %31 = add nsw i32 %18, 1
  br label %32

32:                                               ; preds = %22, %30
  %33 = phi i32 [ %18, %22 ], [ %31, %30 ]
  %34 = add nuw nsw i64 %17, 1
  %35 = icmp eq i64 %34, %10
  br i1 %35, label %11, label %16, !llvm.loop !10

36:                                               ; preds = %13, %74
  %37 = phi i32 [ 0, %13 ], [ %75, %74 ]
  %38 = sub i32 %14, %37
  %39 = zext i32 %38 to i64
  %40 = icmp sgt i32 %14, %37
  br i1 %40, label %41, label %74

41:                                               ; preds = %36
  %42 = load i32, i32* %15, align 16, !tbaa !8
  %43 = and i64 %39, 1
  %44 = icmp eq i32 %38, 1
  br i1 %44, label %63, label %45

45:                                               ; preds = %41
  %46 = and i64 %39, 4294967294
  br label %47

47:                                               ; preds = %98, %45
  %48 = phi i32 [ %42, %45 ], [ %99, %98 ]
  %49 = phi i64 [ 0, %45 ], [ %59, %98 ]
  %50 = phi i64 [ %46, %45 ], [ %100, %98 ]
  %51 = or i64 %49, 1
  %52 = getelementptr inbounds [300 x i32], [300 x i32]* %1, i64 0, i64 %51
  %53 = load i32, i32* %52, align 4, !tbaa !8
  %54 = icmp sgt i32 %48, %53
  br i1 %54, label %55, label %57

55:                                               ; preds = %47
  %56 = getelementptr inbounds [300 x i32], [300 x i32]* %1, i64 0, i64 %49
  store i32 %53, i32* %56, align 8, !tbaa !8
  store i32 %48, i32* %52, align 4, !tbaa !8
  br label %57

57:                                               ; preds = %47, %55
  %58 = phi i32 [ %53, %47 ], [ %48, %55 ]
  %59 = add nuw nsw i64 %49, 2
  %60 = getelementptr inbounds [300 x i32], [300 x i32]* %1, i64 0, i64 %59
  %61 = load i32, i32* %60, align 8, !tbaa !8
  %62 = icmp sgt i32 %58, %61
  br i1 %62, label %96, label %98

63:                                               ; preds = %98, %41
  %64 = phi i32 [ %42, %41 ], [ %99, %98 ]
  %65 = phi i64 [ 0, %41 ], [ %59, %98 ]
  %66 = icmp eq i64 %43, 0
  br i1 %66, label %74, label %67

67:                                               ; preds = %63
  %68 = add nuw nsw i64 %65, 1
  %69 = getelementptr inbounds [300 x i32], [300 x i32]* %1, i64 0, i64 %68
  %70 = load i32, i32* %69, align 4, !tbaa !8
  %71 = icmp sgt i32 %64, %70
  br i1 %71, label %72, label %74

72:                                               ; preds = %67
  %73 = getelementptr inbounds [300 x i32], [300 x i32]* %1, i64 0, i64 %65
  store i32 %70, i32* %73, align 4, !tbaa !8
  store i32 %64, i32* %69, align 4, !tbaa !8
  br label %74

74:                                               ; preds = %63, %67, %72, %36
  %75 = add nuw i32 %37, 1
  %76 = icmp eq i32 %14, %37
  br i1 %76, label %77, label %36, !llvm.loop !12

77:                                               ; preds = %74, %11
  %78 = phi i32 [ %33, %11 ], [ %14, %74 ]
  br label %79

79:                                               ; preds = %77, %83
  %80 = phi i32 [ %81, %83 ], [ %78, %77 ]
  %81 = add nsw i32 %80, -1
  %82 = icmp sgt i32 %80, 0
  br i1 %82, label %83, label %93

83:                                               ; preds = %79
  %84 = zext i32 %80 to i64
  %85 = getelementptr inbounds [300 x i32], [300 x i32]* %1, i64 0, i64 %84
  %86 = load i32, i32* %85, align 4, !tbaa !8
  %87 = zext i32 %81 to i64
  %88 = getelementptr inbounds [300 x i32], [300 x i32]* %1, i64 0, i64 %87
  %89 = load i32, i32* %88, align 4, !tbaa !8
  %90 = icmp sgt i32 %86, %89
  br i1 %90, label %91, label %79, !llvm.loop !13

91:                                               ; preds = %83
  %92 = call i32 (i8*, ...) @printf(i8* nonnull dereferenceable(1) getelementptr inbounds ([3 x i8], [3 x i8]* @.str.1, i64 0, i64 0), i32 %89)
  br label %95

93:                                               ; preds = %79
  %94 = call i32 (i8*, ...) @printf(i8* nonnull dereferenceable(1) getelementptr inbounds ([3 x i8], [3 x i8]* @.str.2, i64 0, i64 0))
  br label %95

95:                                               ; preds = %91, %93
  call void @llvm.lifetime.end.p0i8(i64 20000, i8* nonnull %4) #5
  call void @llvm.lifetime.end.p0i8(i64 1200, i8* nonnull %3) #5
  ret void

96:                                               ; preds = %57
  %97 = getelementptr inbounds [300 x i32], [300 x i32]* %1, i64 0, i64 %51
  store i32 %61, i32* %97, align 4, !tbaa !8
  store i32 %58, i32* %60, align 8, !tbaa !8
  br label %98

98:                                               ; preds = %96, %57
  %99 = phi i32 [ %61, %57 ], [ %58, %96 ]
  %100 = add i64 %50, -2
  %101 = icmp eq i64 %100, 0
  br i1 %101, label %63, label %47, !llvm.loop !14
}

; Function Attrs: argmemonly mustprogress nofree nosync nounwind willreturn
declare void @llvm.lifetime.start.p0i8(i64 immarg, i8* nocapture) #1

; Function Attrs: argmemonly mustprogress nofree nounwind willreturn writeonly
declare void @llvm.memset.p0i8.i64(i8* nocapture writeonly, i8, i64, i1 immarg) #2

; Function Attrs: nofree nounwind
declare noundef i32 @__isoc99_scanf(i8* nocapture noundef readonly, ...) local_unnamed_addr #3

; Function Attrs: argmemonly mustprogress nofree nounwind readonly willreturn
declare i64 @strlen(i8* nocapture) local_unnamed_addr #4

; Function Attrs: nofree nounwind
declare noundef i32 @printf(i8* nocapture noundef readonly, ...) local_unnamed_addr #3

; Function Attrs: argmemonly mustprogress nofree nosync nounwind willreturn
declare void @llvm.lifetime.end.p0i8(i64 immarg, i8* nocapture) #1


!llvm.module.flags = !{!0, !1, !2, !3}
!llvm.ident = !{!4}

!0 = !{i32 1, !"wchar_size", i32 4}
!1 = !{i32 7, !"PIC Level", i32 2}
!2 = !{i32 7, !"PIE Level", i32 2}
!3 = !{i32 7, !"uwtable", i32 1}
!4 = !{!"clang version 13.0.0"}
!5 = !{!6, !6, i64 0}
!6 = !{!"omnipotent char", !7, i64 0}
!7 = !{!"Simple C/C++ TBAA"}
!8 = !{!9, !9, i64 0}
!9 = !{!"int", !6, i64 0}
!10 = distinct !{!10, !11}
!11 = !{!"llvm.loop.mustprogress"}
!12 = distinct !{!12, !11}
!13 = distinct !{!13, !11}
!14 = distinct !{!14, !11}
